target datalayout = "e-m:e-p270:32:32-p271:32:32-p272:64:64-i64:64-i128:128-f80:128-n8:16:32:64-S128"
target triple = "x86_64-pc-linux-gnu"

; Function Attrs: mustprogress nounwind uwtable
define hidden noundef zeroext i1 @_ZN4cvc58internal9GenericOp28isNumeralIndexedOperatorKindENS0_4kind6Kind_tE(i32 noundef %0) #6 align 2 {
  %2 = alloca i32, align 4
  store i32 %0, ptr %2, align 4, !tbaa !22
  %3 = load i32, ptr %2, align 4, !tbaa !22
  %4 = icmp eq i32 %3, 362
  br i1 %4, label %83, label %5

5:                                                ; preds = %1
  %6 = load i32, ptr %2, align 4, !tbaa !22
  %7 = icmp eq i32 %6, 140
  br i1 %7, label %83, label %8

8:                                                ; preds = %5
  %9 = load i32, ptr %2, align 4, !tbaa !22
  %10 = icmp eq i32 %9, 142
  br i1 %10, label %83, label %11

11:                                               ; preds = %8
  %12 = load i32, ptr %2, align 4, !tbaa !22
  %13 = icmp eq i32 %12, 150
  br i1 %13, label %83, label %14

14:                                               ; preds = %11
  %15 = load i32, ptr %2, align 4, !tbaa !22
  %16 = icmp eq i32 %15, 148
  br i1 %16, label %83, label %17

17:                                               ; preds = %14
  %18 = load i32, ptr %2, align 4, !tbaa !22
  %19 = icmp eq i32 %18, 144
  br i1 %19, label %83, label %20

20:                                               ; preds = %17
  %21 = load i32, ptr %2, align 4, !tbaa !22
  %22 = icmp eq i32 %21, 146
  br i1 %22, label %83, label %23

23:                                               ; preds = %20
  %24 = load i32, ptr %2, align 4, !tbaa !22
  %25 = icmp eq i32 %24, 38
  br i1 %25, label %83, label %26

26:                                               ; preds = %23
  %27 = load i32, ptr %2, align 4, !tbaa !22
  %28 = icmp eq i32 %27, 138
  br i1 %28, label %83, label %29

29:                                               ; preds = %26
  %30 = load i32, ptr %2, align 4, !tbaa !22
  %31 = icmp eq i32 %30, 86
  br i1 %31, label %83, label %32

32:                                               ; preds = %29
  %33 = load i32, ptr %2, align 4, !tbaa !22
  %34 = icmp eq i32 %33, 190
  br i1 %34, label %83, label %35

35:                                               ; preds = %32
  %36 = load i32, ptr %2, align 4, !tbaa !22
  %37 = icmp eq i32 %36, 188
  br i1 %37, label %83, label %38

38:                                               ; preds = %35
  %39 = load i32, ptr %2, align 4, !tbaa !22
  %40 = icmp eq i32 %39, 194
  br i1 %40, label %83, label %41

41:                                               ; preds = %38
  %42 = load i32, ptr %2, align 4, !tbaa !22
  %43 = icmp eq i32 %42, 192
  br i1 %43, label %83, label %44

44:                                               ; preds = %41
  %45 = load i32, ptr %2, align 4, !tbaa !22
  %46 = icmp eq i32 %45, 196
  br i1 %46, label %83, label %47

47:                                               ; preds = %44
  %48 = load i32, ptr %2, align 4, !tbaa !22
  %49 = icmp eq i32 %48, 202
  br i1 %49, label %83, label %50

50:                                               ; preds = %47
  %51 = load i32, ptr %2, align 4, !tbaa !22
  %52 = icmp eq i32 %51, 198
  br i1 %52, label %83, label %53

53:                                               ; preds = %50
  %54 = load i32, ptr %2, align 4, !tbaa !22
  %55 = icmp eq i32 %54, 204
  br i1 %55, label %83, label %56

56:                                               ; preds = %53
  %57 = load i32, ptr %2, align 4, !tbaa !22
  %58 = icmp eq i32 %57, 200
  br i1 %58, label %83, label %59

59:                                               ; preds = %56
  %60 = load i32, ptr %2, align 4, !tbaa !22
  %61 = icmp eq i32 %60, 276
  br i1 %61, label %83, label %62

62:                                               ; preds = %59
  %63 = load i32, ptr %2, align 4, !tbaa !22
  %64 = icmp eq i32 %63, 278
  br i1 %64, label %83, label %65

65:                                               ; preds = %62
  %66 = load i32, ptr %2, align 4, !tbaa !22
  %67 = icmp eq i32 %66, 274
  br i1 %67, label %83, label %68

68:                                               ; preds = %65
  %69 = load i32, ptr %2, align 4, !tbaa !22
  %70 = icmp eq i32 %69, 308
  br i1 %70, label %83, label %71

71:                                               ; preds = %68
  %72 = load i32, ptr %2, align 4, !tbaa !22
  %73 = icmp eq i32 %72, 286
  br i1 %73, label %83, label %74

74:                                               ; preds = %71
  %75 = load i32, ptr %2, align 4, !tbaa !22
  %76 = icmp eq i32 %75, 310
  br i1 %76, label %83, label %77

77:                                               ; preds = %74
  %78 = load i32, ptr %2, align 4, !tbaa !22
  %79 = icmp eq i32 %78, 312
  br i1 %79, label %83, label %80

80:                                               ; preds = %77
  %81 = load i32, ptr %2, align 4, !tbaa !22
  %82 = icmp eq i32 %81, 314
  br label %83

83:                                               ; preds = %80, %77, %74, %71, %68, %65, %62, %59, %56, %53, %50, %47, %44, %41, %38, %35, %32, %29, %26, %23, %20, %17, %14, %11, %8, %5, %1
  %84 = phi i1 [ true, %77 ], [ true, %74 ], [ true, %71 ], [ true, %68 ], [ true, %65 ], [ true, %62 ], [ true, %59 ], [ true, %56 ], [ true, %53 ], [ true, %50 ], [ true, %47 ], [ true, %44 ], [ true, %41 ], [ true, %38 ], [ true, %35 ], [ true, %32 ], [ true, %29 ], [ true, %26 ], [ true, %23 ], [ true, %20 ], [ true, %17 ], [ true, %14 ], [ true, %11 ], [ true, %8 ], [ true, %5 ], [ true, %1 ], [ %82, %80 ]
  ret i1 %84
}