; Function Attrs: mustprogress nofree norecurse nosync nounwind willreturn memory(none) uwtable
define hidden noundef zeroext i1 @_ZN4cvc58internal9GenericOp28isNumeralIndexedOperatorKindENS0_4kind6Kind_tE(i32 noundef %0) local_unnamed_addr #8 align 2 {
  switch i32 %0, label %2 [
    i32 362, label %switch.edge
    i32 312, label %switch.edge
    i32 310, label %switch.edge
    i32 308, label %switch.edge
    i32 286, label %switch.edge
    i32 278, label %switch.edge
    i32 276, label %switch.edge
    i32 274, label %switch.edge
    i32 204, label %switch.edge
    i32 202, label %switch.edge
    i32 200, label %switch.edge
    i32 198, label %switch.edge
    i32 196, label %switch.edge
    i32 194, label %switch.edge
    i32 192, label %switch.edge
    i32 190, label %switch.edge
    i32 188, label %switch.edge
    i32 150, label %switch.edge
    i32 148, label %switch.edge
    i32 146, label %switch.edge
    i32 144, label %switch.edge
    i32 142, label %switch.edge
    i32 140, label %switch.edge
    i32 138, label %switch.edge
    i32 86, label %switch.edge
    i32 38, label %switch.edge
    i32 314, label %switch.edge
  ]

2:                                                ; preds = %1
  br label %switch.edge

switch.edge:                                      ; preds = %1, %1, %1, %1, %1, %1, %1, %1, %1, %1, %1, %1, %1, %1, %1, %1, %1, %1, %1, %1, %1, %1, %1, %1, %1, %1, %1, %2
  %3 = phi i1 [ true, %1 ], [ false, %2 ], [ true, %1 ], [ true, %1 ], [ true, %1 ], [ true, %1 ], [ true, %1 ], [ true, %1 ], [ true, %1 ], [ true, %1 ], [ true, %1 ], [ true, %1 ], [ true, %1 ], [ true, %1 ], [ true, %1 ], [ true, %1 ], [ true, %1 ], [ true, %1 ], [ true, %1 ], [ true, %1 ], [ true, %1 ], [ true, %1 ], [ true, %1 ], [ true, %1 ], [ true, %1 ], [ true, %1 ], [ true, %1 ], [ true, %1 ]
  ret i1 %3
}